; ModuleID = '14/1313.c'
source_filename = "14/1313.c"
target datalayout = "e-m:e-p270:32:32-p271:32:32-p272:64:64-i64:64-f80:128-n8:16:32:64-S128"
target triple = "x86_64-pc-linux-gnu"

%struct.point = type { i32, i32, i32 }

@.str = private unnamed_addr constant [3 x i8] c"%d\00", align 1
@.str.1 = private unnamed_addr constant [7 x i8] c"%d%d%d\00", align 1
@.str.2 = private unnamed_addr constant [7 x i8] c"%d %d\0A\00", align 1

; Function Attrs: noinline nounwind uwtable
define dso_local i32 @main(i32 %0, i8** %1) #0 {
  %3 = alloca i32, align 4
  %4 = alloca i32, align 4
  %5 = alloca i8**, align 8
  %6 = alloca i32, align 4
  %7 = alloca i32, align 4
  %8 = alloca i32, align 4
  %9 = alloca [100000 x %struct.point], align 16
  %10 = alloca %struct.point, align 4
  store i32 0, i32* %3, align 4
  store i32 %0, i32* %4, align 4
  store i8** %1, i8*** %5, align 8
  %11 = call i32 (i8*, ...) @__isoc99_scanf(i8* getelementptr inbounds ([3 x i8], [3 x i8]* @.str, i64 0, i64 0), i32* %8)
  store i32 0, i32* %6, align 4
  br label %12

12:                                               ; preds = %30, %2
  %13 = load i32, i32* %6, align 4
  %14 = load i32, i32* %8, align 4
  %15 = icmp slt i32 %13, %14
  br i1 %15, label %16, label %33

16:                                               ; preds = %12
  %17 = load i32, i32* %6, align 4
  %18 = sext i32 %17 to i64
  %19 = getelementptr inbounds [100000 x %struct.point], [100000 x %struct.point]* %9, i64 0, i64 %18
  %20 = getelementptr inbounds %struct.point, %struct.point* %19, i32 0, i32 0
  %21 = load i32, i32* %6, align 4
  %22 = sext i32 %21 to i64
  %23 = getelementptr inbounds [100000 x %struct.point], [100000 x %struct.point]* %9, i64 0, i64 %22
  %24 = getelementptr inbounds %struct.point, %struct.point* %23, i32 0, i32 1
  %25 = load i32, i32* %6, align 4
  %26 = sext i32 %25 to i64
  %27 = getelementptr inbounds [100000 x %struct.point], [100000 x %struct.point]* %9, i64 0, i64 %26
  %28 = getelementptr inbounds %struct.point, %struct.point* %27, i32 0, i32 2
  %29 = call i32 (i8*, ...) @__isoc99_scanf(i8* getelementptr inbounds ([7 x i8], [7 x i8]* @.str.1, i64 0, i64 0), i32* %20, i32* %24, i32* %28)
  br label %30

30:                                               ; preds = %16
  %31 = load i32, i32* %6, align 4
  %32 = add nsw i32 %31, 1
  store i32 %32, i32* %6, align 4
  br label %12

33:                                               ; preds = %12
  store i32 0, i32* %6, align 4
  br label %34

34:                                               ; preds = %92, %33
  %35 = load i32, i32* %6, align 4
  %36 = icmp slt i32 %35, 3
  br i1 %36, label %37, label %95

37:                                               ; preds = %34
  %38 = load i32, i32* %6, align 4
  %39 = add nsw i32 %38, 1
  store i32 %39, i32* %7, align 4
  br label %40

40:                                               ; preds = %88, %37
  %41 = load i32, i32* %7, align 4
  %42 = load i32, i32* %8, align 4
  %43 = icmp slt i32 %41, %42
  br i1 %43, label %44, label %91

44:                                               ; preds = %40
  %45 = load i32, i32* %6, align 4
  %46 = sext i32 %45 to i64
  %47 = getelementptr inbounds [100000 x %struct.point], [100000 x %struct.point]* %9, i64 0, i64 %46
  %48 = getelementptr inbounds %struct.point, %struct.point* %47, i32 0, i32 1
  %49 = load i32, i32* %48, align 4
  %50 = load i32, i32* %6, align 4
  %51 = sext i32 %50 to i64
  %52 = getelementptr inbounds [100000 x %struct.point], [100000 x %struct.point]* %9, i64 0, i64 %51
  %53 = getelementptr inbounds %struct.point, %struct.point* %52, i32 0, i32 2
  %54 = load i32, i32* %53, align 4
  %55 = add nsw i32 %49, %54
  %56 = load i32, i32* %7, align 4
  %57 = sext i32 %56 to i64
  %58 = getelementptr inbounds [100000 x %struct.point], [100000 x %struct.point]* %9, i64 0, i64 %57
  %59 = getelementptr inbounds %struct.point, %struct.point* %58, i32 0, i32 1
  %60 = load i32, i32* %59, align 4
  %61 = load i32, i32* %7, align 4
  %62 = sext i32 %61 to i64
  %63 = getelementptr inbounds [100000 x %struct.point], [100000 x %struct.point]* %9, i64 0, i64 %62
  %64 = getelementptr inbounds %struct.point, %struct.point* %63, i32 0, i32 2
  %65 = load i32, i32* %64, align 4
  %66 = add nsw i32 %60, %65
  %67 = icmp slt i32 %55, %66
  br i1 %67, label %68, label %87

68:                                               ; preds = %44
  %69 = load i32, i32* %7, align 4
  %70 = sext i32 %69 to i64
  %71 = getelementptr inbounds [100000 x %struct.point], [100000 x %struct.point]* %9, i64 0, i64 %70
  %72 = bitcast %struct.point* %10 to i8*
  %73 = bitcast %struct.point* %71 to i8*
  call void @llvm.memcpy.p0i8.p0i8.i64(i8* align 4 %72, i8* align 4 %73, i64 12, i1 false)
  %74 = load i32, i32* %7, align 4
  %75 = sext i32 %74 to i64
  %76 = getelementptr inbounds [100000 x %struct.point], [100000 x %struct.point]* %9, i64 0, i64 %75
  %77 = load i32, i32* %6, align 4
  %78 = sext i32 %77 to i64
  %79 = getelementptr inbounds [100000 x %struct.point], [100000 x %struct.point]* %9, i64 0, i64 %78
  %80 = bitcast %struct.point* %76 to i8*
  %81 = bitcast %struct.point* %79 to i8*
  call void @llvm.memcpy.p0i8.p0i8.i64(i8* align 4 %80, i8* align 4 %81, i64 12, i1 false)
  %82 = load i32, i32* %6, align 4
  %83 = sext i32 %82 to i64
  %84 = getelementptr inbounds [100000 x %struct.point], [100000 x %struct.point]* %9, i64 0, i64 %83
  %85 = bitcast %struct.point* %84 to i8*
  %86 = bitcast %struct.point* %10 to i8*
  call void @llvm.memcpy.p0i8.p0i8.i64(i8* align 4 %85, i8* align 4 %86, i64 12, i1 false)
  br label %87

87:                                               ; preds = %68, %44
  br label %88

88:                                               ; preds = %87
  %89 = load i32, i32* %7, align 4
  %90 = add nsw i32 %89, 1
  store i32 %90, i32* %7, align 4
  br label %40

91:                                               ; preds = %40
  br label %92

92:                                               ; preds = %91
  %93 = load i32, i32* %6, align 4
  %94 = add nsw i32 %93, 1
  store i32 %94, i32* %6, align 4
  br label %34

95:                                               ; preds = %34
  store i32 0, i32* %6, align 4
  br label %96

96:                                               ; preds = %117, %95
  %97 = load i32, i32* %6, align 4
  %98 = icmp slt i32 %97, 3
  br i1 %98, label %99, label %120

99:                                               ; preds = %96
  %100 = load i32, i32* %6, align 4
  %101 = sext i32 %100 to i64
  %102 = getelementptr inbounds [100000 x %struct.point], [100000 x %struct.point]* %9, i64 0, i64 %101
  %103 = getelementptr inbounds %struct.point, %struct.point* %102, i32 0, i32 0
  %104 = load i32, i32* %103, align 4
  %105 = load i32, i32* %6, align 4
  %106 = sext i32 %105 to i64
  %107 = getelementptr inbounds [100000 x %struct.point], [100000 x %struct.point]* %9, i64 0, i64 %106
  %108 = getelementptr inbounds %struct.point, %struct.point* %107, i32 0, i32 1
  %109 = load i32, i32* %108, align 4
  %110 = load i32, i32* %6, align 4
  %111 = sext i32 %110 to i64
  %112 = getelementptr inbounds [100000 x %struct.point], [100000 x %struct.point]* %9, i64 0, i64 %111
  %113 = getelementptr inbounds %struct.point, %struct.point* %112, i32 0, i32 2
  %114 = load i32, i32* %113, align 4
  %115 = add nsw i32 %109, %114
  %116 = call i32 (i8*, ...) @printf(i8* getelementptr inbounds ([7 x i8], [7 x i8]* @.str.2, i64 0, i64 0), i32 %104, i32 %115)
  br label %117

117:                                              ; preds = %99
  %118 = load i32, i32* %6, align 4
  %119 = add nsw i32 %118, 1
  store i32 %119, i32* %6, align 4
  br label %96

120:                                              ; preds = %96
  ret i32 0
}

declare dso_local i32 @__isoc99_scanf(i8*, ...) #1

; Function Attrs: argmemonly nounwind willreturn
declare void @llvm.memcpy.p0i8.p0i8.i64(i8* noalias nocapture writeonly, i8* noalias nocapture readonly, i64, i1 immarg) #2

declare dso_local i32 @printf(i8*, ...) #1


!llvm.module.flags = !{!0}
!llvm.ident = !{!1}

!0 = !{i32 1, !"wchar_size", i32 4}
!1 = !{!"clang version 10.0.0-4ubuntu1 "}
